target datalayout = "e-m:e-p270:32:32-p271:32:32-p272:64:64-i64:64-i128:128-f80:128-n8:16:32:64-S128"
target triple = "x86_64-pc-linux-gnu"

%struct.SurfaceDataRasInfo = type { %struct.SurfaceDataBounds, ptr, i32, i32, i32, i32, ptr, ptr, ptr, ptr, ptr, ptr, i32, %union.anon.0 }
%struct.SurfaceDataBounds = type { i32, i32, i32, i32 }
%union.anon.0 = type { ptr, [56 x i8] }

; Function Attrs: nounwind uwtable
define hidden void @IntArgbBmToThreeByteBgrXparBgCopy(ptr noundef %0, ptr noundef %1, i32 noundef %2, i32 noundef %3, i32 noundef %4, ptr noundef %5, ptr noundef %6, ptr noundef %7, ptr noundef %8) #1 {
  %10 = alloca ptr, align 8
  %11 = alloca ptr, align 8
  %12 = alloca i32, align 4
  %13 = alloca i32, align 4
  %14 = alloca i32, align 4
  %15 = alloca ptr, align 8
  %16 = alloca ptr, align 8
  %17 = alloca ptr, align 8
  %18 = alloca ptr, align 8
  %19 = alloca i8, align 1
  %20 = alloca i8, align 1
  %21 = alloca i8, align 1
  %22 = alloca ptr, align 8
  %23 = alloca ptr, align 8
  %24 = alloca i32, align 4
  %25 = alloca i32, align 4
  %26 = alloca i32, align 4
  %27 = alloca i32, align 4
  %28 = alloca i32, align 4
  store ptr %0, ptr %10, align 8
  store ptr %1, ptr %11, align 8
  store i32 %2, ptr %12, align 4
  store i32 %3, ptr %13, align 4
  store i32 %4, ptr %14, align 4
  store ptr %5, ptr %15, align 8
  store ptr %6, ptr %16, align 8
  store ptr %7, ptr %17, align 8
  store ptr %8, ptr %18, align 8
  br label %29

29:                                               ; preds = %9
  %30 = load i32, ptr %14, align 4
  %31 = trunc i32 %30 to i8
  store i8 %31, ptr %19, align 1
  %32 = load i32, ptr %14, align 4
  %33 = ashr i32 %32, 8
  %34 = trunc i32 %33 to i8
  store i8 %34, ptr %20, align 1
  %35 = load i32, ptr %14, align 4
  %36 = ashr i32 %35, 16
  %37 = trunc i32 %36 to i8
  store i8 %37, ptr %21, align 1
  br label %38

38:                                               ; preds = %29
  br label %39

39:                                               ; preds = %38
  %40 = load ptr, ptr %10, align 8
  store ptr %40, ptr %22, align 8
  %41 = load ptr, ptr %11, align 8
  store ptr %41, ptr %23, align 8
  %42 = load ptr, ptr %15, align 8
  %43 = getelementptr inbounds %struct.SurfaceDataRasInfo, ptr %42, i32 0, i32 4
  %44 = load i32, ptr %43, align 8
  store i32 %44, ptr %24, align 4
  %45 = load ptr, ptr %16, align 8
  %46 = getelementptr inbounds %struct.SurfaceDataRasInfo, ptr %45, i32 0, i32 4
  %47 = load i32, ptr %46, align 8
  store i32 %47, ptr %25, align 4
  %48 = load i32, ptr %12, align 4
  %49 = mul i32 %48, 4
  %50 = load i32, ptr %24, align 4
  %51 = sub i32 %50, %49
  store i32 %51, ptr %24, align 4
  %52 = load i32, ptr %12, align 4
  %53 = mul i32 %52, 3
  %54 = load i32, ptr %25, align 4
  %55 = sub i32 %54, %53
  store i32 %55, ptr %25, align 4
  br label %56

56:                                               ; preds = %124, %39
  %57 = load i32, ptr %12, align 4
  store i32 %57, ptr %26, align 4
  br label %58

58:                                               ; preds = %107, %56
  br label %59

59:                                               ; preds = %58
  %60 = load ptr, ptr %22, align 8
  %61 = getelementptr inbounds i32, ptr %60, i64 0
  %62 = load i32, ptr %61, align 4
  store i32 %62, ptr %27, align 4
  %63 = load i32, ptr %27, align 4
  %64 = ashr i32 %63, 24
  %65 = icmp eq i32 %64, 0
  br i1 %65, label %66, label %78

66:                                               ; preds = %59
  br label %67

67:                                               ; preds = %66
  %68 = load i8, ptr %19, align 1
  %69 = load ptr, ptr %23, align 8
  %70 = getelementptr inbounds i8, ptr %69, i64 0
  store i8 %68, ptr %70, align 1
  %71 = load i8, ptr %20, align 1
  %72 = load ptr, ptr %23, align 8
  %73 = getelementptr inbounds i8, ptr %72, i64 1
  store i8 %71, ptr %73, align 1
  %74 = load i8, ptr %21, align 1
  %75 = load ptr, ptr %23, align 8
  %76 = getelementptr inbounds i8, ptr %75, i64 2
  store i8 %74, ptr %76, align 1
  br label %77

77:                                               ; preds = %67
  br label %97

78:                                               ; preds = %59
  %79 = load i32, ptr %27, align 4
  store i32 %79, ptr %28, align 4
  br label %80

80:                                               ; preds = %78
  %81 = load i32, ptr %28, align 4
  %82 = ashr i32 %81, 0
  %83 = trunc i32 %82 to i8
  %84 = load ptr, ptr %23, align 8
  %85 = getelementptr inbounds i8, ptr %84, i64 0
  store i8 %83, ptr %85, align 1
  %86 = load i32, ptr %28, align 4
  %87 = ashr i32 %86, 8
  %88 = trunc i32 %87 to i8
  %89 = load ptr, ptr %23, align 8
  %90 = getelementptr inbounds i8, ptr %89, i64 1
  store i8 %88, ptr %90, align 1
  %91 = load i32, ptr %28, align 4
  %92 = ashr i32 %91, 16
  %93 = trunc i32 %92 to i8
  %94 = load ptr, ptr %23, align 8
  %95 = getelementptr inbounds i8, ptr %94, i64 2
  store i8 %93, ptr %95, align 1
  br label %96

96:                                               ; preds = %80
  br label %97

97:                                               ; preds = %96, %77
  br label %98

98:                                               ; preds = %97
  %99 = load ptr, ptr %22, align 8
  %100 = ptrtoint ptr %99 to i64
  %101 = add nsw i64 %100, 4
  %102 = inttoptr i64 %101 to ptr
  store ptr %102, ptr %22, align 8
  %103 = load ptr, ptr %23, align 8
  %104 = ptrtoint ptr %103 to i64
  %105 = add nsw i64 %104, 3
  %106 = inttoptr i64 %105 to ptr
  store ptr %106, ptr %23, align 8
  br label %107

107:                                              ; preds = %98
  %108 = load i32, ptr %26, align 4
  %109 = add i32 %108, -1
  store i32 %109, ptr %26, align 4
  %110 = icmp ugt i32 %109, 0
  br i1 %110, label %58, label %111, !llvm.loop !33

111:                                              ; preds = %107
  %112 = load ptr, ptr %22, align 8
  %113 = ptrtoint ptr %112 to i64
  %114 = load i32, ptr %24, align 4
  %115 = sext i32 %114 to i64
  %116 = add nsw i64 %113, %115
  %117 = inttoptr i64 %116 to ptr
  store ptr %117, ptr %22, align 8
  %118 = load ptr, ptr %23, align 8
  %119 = ptrtoint ptr %118 to i64
  %120 = load i32, ptr %25, align 4
  %121 = sext i32 %120 to i64
  %122 = add nsw i64 %119, %121
  %123 = inttoptr i64 %122 to ptr
  store ptr %123, ptr %23, align 8
  br label %124

124:                                              ; preds = %111
  %125 = load i32, ptr %13, align 4
  %126 = add i32 %125, -1
  store i32 %126, ptr %13, align 4
  %127 = icmp ugt i32 %126, 0
  br i1 %127, label %56, label %128, !llvm.loop !34

128:                                              ; preds = %124
  br label %129

129:                                              ; preds = %128
  ret void
}