; Function Attrs: nofree norecurse nosync nounwind memory(readwrite, inaccessiblemem: none) uwtable
define hidden void @IntArgbBmToThreeByteBgrXparBgCopy(ptr noundef %0, ptr noundef %1, i32 noundef %2, i32 noundef %3, i32 noundef %4, ptr nocapture noundef readonly %5, ptr nocapture noundef readonly %6, ptr nocapture readnone %7, ptr nocapture readnone %8) #1 {
  %10 = getelementptr inbounds i8, ptr %5, i64 32
  %11 = load i32, ptr %10, align 8
  %12 = getelementptr inbounds i8, ptr %6, i64 32
  %13 = load i32, ptr %12, align 8
  %14 = shl i32 %2, 2
  %15 = sub i32 %11, %14
  %.neg = mul i32 %2, -3
  %16 = add i32 %13, %.neg
  %17 = sext i32 %15 to i64
  %18 = sext i32 %16 to i64
  br label %19

19:                                               ; preds = %32, %9
  %.036 = phi ptr [ %1, %9 ], [ %36, %32 ]
  %.034 = phi ptr [ %0, %9 ], [ %34, %32 ]
  %.0 = phi i32 [ %3, %9 ], [ %37, %32 ]
  br label %20

20:                                               ; preds = %20, %19
  %.137 = phi ptr [ %.036, %19 ], [ %30, %20 ]
  %.035 = phi i32 [ %2, %19 ], [ %31, %20 ]
  %.1 = phi ptr [ %.034, %19 ], [ %27, %20 ]
  %21 = load i32, ptr %.1, align 4
  %22 = icmp ult i32 %21, 16777216
  %spec.select = select i1 %22, i32 %4, i32 %21
  %.sink.in = lshr i32 %spec.select, 16
  %.sink = trunc i32 %.sink.in to i8
  %.sink43.in = lshr i32 %spec.select, 8
  %.sink43 = trunc i32 %.sink43.in to i8
  %.sink44 = trunc i32 %spec.select to i8
  store i8 %.sink44, ptr %.137, align 1
  %23 = getelementptr inbounds i8, ptr %.137, i64 1
  store i8 %.sink43, ptr %23, align 1
  %24 = getelementptr inbounds i8, ptr %.137, i64 2
  store i8 %.sink, ptr %24, align 1
  %25 = ptrtoint ptr %.1 to i64
  %26 = add nsw i64 %25, 4
  %27 = inttoptr i64 %26 to ptr
  %28 = ptrtoint ptr %.137 to i64
  %29 = add nsw i64 %28, 3
  %30 = inttoptr i64 %29 to ptr
  %31 = add i32 %.035, -1
  %.not = icmp eq i32 %31, 0
  br i1 %.not, label %32, label %20, !llvm.loop !33

32:                                               ; preds = %20
  %33 = add nsw i64 %26, %17
  %34 = inttoptr i64 %33 to ptr
  %35 = add nsw i64 %29, %18
  %36 = inttoptr i64 %35 to ptr
  %37 = add i32 %.0, -1
  %.not40 = icmp eq i32 %37, 0
  br i1 %.not40, label %38, label %19, !llvm.loop !34

38:                                               ; preds = %32
  ret void
}